; Function Attrs: inlinehint mustprogress optsize uwtable
define internal noundef ptr @"_ZZN8nanobind6detail11func_createILb0ELb1EZL30nanobind_init_test_classes_extRNS_7module_EE4$_41PZL30nanobind_init_test_classes_extS3_E4BaseJETpTnmJEJNS_5scopeENS_4nameEEEEP7_objectOT1_PFT2_DpT3_ESt16integer_sequenceImJXspT4_EEEDpRKT5_ENUlPvPSA_PhNS_9rv_policyEPNS0_12cleanup_listEE_8__invokeESO_SP_SQ_SR_ST_"(ptr readnone captures(none) %0, ptr readnone captures(none) %1, ptr readnone captures(none) %2, i32 noundef %3, ptr noundef %4) #16 align 2 personality ptr @__gxx_personality_v0 {
  %6 = tail call noalias noundef nonnull dereferenceable(1) ptr @_Znwm(i64 noundef 1) #40
  %7 = icmp eq i32 %3, 0
  %8 = icmp eq i32 %3, 1
  %spec.store.select.i.i = select i1 %8, i32 5, i32 %3
  %.0.i.i = select i1 %7, i32 2, i32 %spec.store.select.i.i
  %9 = tail call noundef ptr @_ZN8nanobind6detail11nb_type_putEPKSt9type_infoPvNS_9rv_policyEPNS0_12cleanup_listEPb(ptr noundef nonnull @_ZTIZL30nanobind_init_test_classes_extRN8nanobind7module_EE4Base, ptr noundef nonnull %6, i32 noundef %.0.i.i, ptr noundef %4, ptr noundef null) #35
  ret ptr %9
}